target datalayout = "e-m:e-p270:32:32-p271:32:32-p272:64:64-i64:64-i128:128-f80:128-n8:16:32:64-S128"
target triple = "x86_64-pc-linux-gnu"

%struct.Curl_cftype = type { ptr, i32, i32, ptr, ptr, ptr, ptr, ptr, ptr, ptr, ptr, ptr, ptr, ptr, ptr, ptr }
%struct.Curl_cfilter = type { ptr, ptr, ptr, ptr, i32, i8 }
%struct.Curl_easy = type { i32, i64, i64, ptr, %struct.Curl_llist_node, %struct.Curl_llist_node, i32, i32, %struct.Curl_message, %struct.easy_pollset, %struct.Names, ptr, ptr, ptr, %struct.SingleRequest, %struct.UserDefined, ptr, ptr, %struct.Progress, %struct.UrlState, ptr, %struct.PureInfo, %struct.curl_tlssessioninfo }
%struct.Curl_llist_node = type { ptr, ptr, ptr, ptr }
%struct.Curl_message = type { %struct.Curl_llist_node, %struct.CURLMsg }
%struct.CURLMsg = type { i32, ptr, %union.anon.0 }
%union.anon.0 = type { ptr }
%struct.easy_pollset = type { [5 x i32], i32, [5 x i8] }
%struct.Names = type { ptr, i32 }
%struct.SingleRequest = type <{ i64, i64, i64, i64, %struct.curltime, i32, i32, i32, i32, i64, i32, i32, i32, i32, ptr, ptr, %struct.bufq, i64, i64, ptr, ptr, %union.anon.1, ptr, i8, i32, [3 x i8] }>
%struct.curltime = type { i64, i32 }
%struct.bufq = type { ptr, ptr, ptr, ptr, i64, i64, i64, i32 }
%union.anon.1 = type { ptr }
%struct.UserDefined = type <{ ptr, ptr, ptr, ptr, ptr, ptr, i16, [6 x i8], i64, i64, i64, ptr, ptr, i64, i16, i16, [4 x i8], ptr, ptr, ptr, ptr, ptr, ptr, ptr, ptr, ptr, ptr, ptr, ptr, ptr, ptr, ptr, ptr, ptr, ptr, ptr, ptr, ptr, ptr, ptr, i32, i32, i32, i32, i32, [4 x i8], i64, i64, i64, i64, i64, i64, i64, i64, ptr, ptr, %struct.curl_mimepart, ptr, ptr, i64, i8, i8, i8, [5 x i8], %struct.ssl_config_data, %struct.ssl_config_data, ptr, i16, i8, i8, [4 x i8], %struct.ssl_general_config, i32, i32, i32, [4 x i8], ptr, ptr, i8, [7 x i8], i64, i8, i8, i8, i8, i32, ptr, ptr, ptr, i8, i8, [2 x i8], i32, [63 x ptr], [8 x ptr], i32, i32, i32, [4 x i8], ptr, ptr, ptr, ptr, ptr, i8, [3 x i8], i32, i32, i32, i64, %struct.Curl_data_priority, ptr, ptr, i64, ptr, i64, ptr, ptr, ptr, i8, [3 x i8], i32, i8, i8, i64, [6 x i8] }>
%struct.curl_mimepart = type { ptr, ptr, i32, i32, ptr, ptr, ptr, ptr, ptr, ptr, ptr, ptr, ptr, ptr, ptr, i64, %struct.mime_state, ptr, %struct.mime_encoder_state, i64 }
%struct.mime_state = type { i32, ptr, i64 }
%struct.mime_encoder_state = type { i64, i64, i64, [256 x i8] }
%struct.ssl_config_data = type { %struct.ssl_primary_config, i64, ptr, ptr, ptr, ptr, ptr, ptr, ptr, i16 }
%struct.ssl_primary_config = type { ptr, ptr, ptr, ptr, ptr, ptr, ptr, ptr, ptr, ptr, ptr, ptr, i8, i32, i8, i8 }
%struct.ssl_general_config = type { i64, i32 }
%struct.Curl_data_priority = type { ptr, ptr, i32, i8 }
%struct.Progress = type { i64, %struct.pgrs_dir, %struct.pgrs_dir, i64, i64, i32, i32, i64, i64, i64, i64, i64, i64, i64, i64, i64, %struct.curltime, %struct.curltime, %struct.curltime, %struct.curltime, [6 x i64], [6 x %struct.curltime], i32, i8 }
%struct.pgrs_dir = type { i64, i64, i64, %struct.pgrs_measure }
%struct.pgrs_measure = type { %struct.curltime, i64 }
%struct.UrlState = type { %struct.curltime, i64, i64, %struct.dynbuf, ptr, i64, ptr, i32, i32, i32, ptr, i64, i32, i64, i32, ptr, %struct.digestdata, %struct.digestdata, %struct.auth, %struct.auth, %struct.Curl_async, ptr, %struct.curltime, %struct.Curl_tree, %struct.Curl_llist, [15 x %struct.time_node], ptr, ptr, i64, i64, %struct.Curl_data_priority, ptr, ptr, ptr, %struct.urlpieces, ptr, ptr, ptr, ptr, ptr, i64, %struct.dynbuf, %struct.Curl_llist, [2 x %struct.curl_header], ptr, i32, ptr, ptr, %struct.store_netrc, %struct.dynamically_allocated_data, i8, i8, i8, i8, i32 }
%struct.digestdata = type { ptr, ptr, ptr, ptr, ptr, ptr, i32, i8, i8 }
%struct.auth = type { i64, i64, i64, i8 }
%struct.Curl_async = type { ptr, ptr, ptr, ptr, i32, i32, i8 }
%struct.Curl_tree = type { ptr, ptr, ptr, ptr, %struct.curltime, ptr }
%struct.time_node = type { %struct.Curl_llist_node, %struct.curltime, i32 }
%struct.urlpieces = type { ptr, ptr, ptr, ptr, ptr, ptr, ptr, ptr }
%struct.dynbuf = type { ptr, i64, i64, i64 }
%struct.Curl_llist = type { ptr, ptr, ptr, i64 }
%struct.curl_header = type { ptr, ptr, i64, i64, i32, ptr }
%struct.store_netrc = type { %struct.dynbuf, ptr, i8 }
%struct.dynamically_allocated_data = type { ptr, ptr, ptr, ptr, ptr, ptr, ptr, ptr, ptr, ptr, ptr, ptr, ptr }
%struct.PureInfo = type { i32, i32, i32, i64, i64, i64, i64, i64, ptr, ptr, i64, i32, %struct.ip_quadruple, i32, ptr, i32, %struct.curl_certinfo, i32, i8 }
%struct.ip_quadruple = type { [46 x i8], [46 x i8], i32, i32 }
%struct.curl_certinfo = type { i32, ptr }
%struct.curl_tlssessioninfo = type { i32, ptr }
%struct.curl_trc_feat = type { ptr, i32 }
%struct.cf_hc_ctx = type { i32, ptr, %struct.curltime, i32, %struct.cf_hc_baller, %struct.cf_hc_baller, i32, i32 }
%struct.cf_hc_baller = type { ptr, ptr, i32, %struct.curltime, i32, i8 }

@.str.13 = private unnamed_addr constant [24 x i8] c"shutdown -> %d, done=%d\00", align 1

; Function Attrs: nounwind uwtable
define internal zeroext i1 @cf_hc_baller_is_active(ptr noundef %0) #0 {
  %2 = alloca ptr, align 8
  store ptr %0, ptr %2, align 8, !tbaa !119
  %3 = load ptr, ptr %2, align 8, !tbaa !119
  %4 = getelementptr inbounds nuw %struct.cf_hc_baller, ptr %3, i32 0, i32 5
  %5 = load i8, ptr %4, align 4
  %6 = and i8 %5, 1
  %7 = zext i8 %6 to i32
  %8 = icmp ne i32 %7, 0
  br i1 %8, label %9, label %20

9:                                                ; preds = %1
  %10 = load ptr, ptr %2, align 8, !tbaa !119
  %11 = getelementptr inbounds nuw %struct.cf_hc_baller, ptr %10, i32 0, i32 1
  %12 = load ptr, ptr %11, align 8, !tbaa !121
  %13 = icmp ne ptr %12, null
  br i1 %13, label %14, label %20

14:                                               ; preds = %9
  %15 = load ptr, ptr %2, align 8, !tbaa !119
  %16 = getelementptr inbounds nuw %struct.cf_hc_baller, ptr %15, i32 0, i32 2
  %17 = load i32, ptr %16, align 8, !tbaa !123
  %18 = icmp ne i32 %17, 0
  %19 = xor i1 %18, true
  br label %20

20:                                               ; preds = %14, %9, %1
  %21 = phi i1 [ false, %9 ], [ false, %1 ], [ %19, %14 ]
  ret i1 %21
}

; Function Attrs: nounwind uwtable
define internal i32 @cf_hc_shutdown(ptr noundef %0, ptr noundef %1, ptr noundef %2) #0 {
  %4 = alloca i32, align 4
  %5 = alloca ptr, align 8
  %6 = alloca ptr, align 8
  %7 = alloca ptr, align 8
  %8 = alloca ptr, align 8
  %9 = alloca [2 x ptr], align 16
  %10 = alloca i64, align 8
  %11 = alloca i32, align 4
  %12 = alloca i32, align 4
  %13 = alloca ptr, align 8
  %14 = alloca i8, align 1
  store ptr %0, ptr %5, align 8, !tbaa !4
  store ptr %1, ptr %6, align 8, !tbaa !9
  store ptr %2, ptr %7, align 8, !tbaa !93
  call void @llvm.lifetime.start.p0(i64 8, ptr %8) #5
  %15 = load ptr, ptr %5, align 8, !tbaa !4
  %16 = getelementptr inbounds nuw %struct.Curl_cfilter, ptr %15, i32 0, i32 2
  %17 = load ptr, ptr %16, align 8, !tbaa !11
  store ptr %17, ptr %8, align 8, !tbaa !16
  call void @llvm.lifetime.start.p0(i64 16, ptr %9) #5
  call void @llvm.lifetime.start.p0(i64 8, ptr %10) #5
  call void @llvm.lifetime.start.p0(i64 4, ptr %11) #5
  store i32 0, ptr %11, align 4, !tbaa !95
  br label %18

18:                                               ; preds = %3
  br label %19

19:                                               ; preds = %18
  br label %20

20:                                               ; preds = %19
  %21 = load ptr, ptr %5, align 8, !tbaa !4
  %22 = getelementptr inbounds nuw %struct.Curl_cfilter, ptr %21, i32 0, i32 5
  %23 = load i8, ptr %22, align 4
  %24 = and i8 %23, 1
  %25 = zext i8 %24 to i32
  %26 = icmp ne i32 %25, 0
  br i1 %26, label %27, label %29

27:                                               ; preds = %20
  %28 = load ptr, ptr %7, align 8, !tbaa !93
  store i8 1, ptr %28, align 1, !tbaa !91
  store i32 0, ptr %4, align 4
  store i32 1, ptr %12, align 4
  br label %195

29:                                               ; preds = %20
  %30 = load ptr, ptr %8, align 8, !tbaa !16
  %31 = getelementptr inbounds nuw %struct.cf_hc_ctx, ptr %30, i32 0, i32 4
  %32 = getelementptr inbounds [2 x ptr], ptr %9, i64 0, i64 0
  store ptr %31, ptr %32, align 16, !tbaa !119
  %33 = load ptr, ptr %8, align 8, !tbaa !16
  %34 = getelementptr inbounds nuw %struct.cf_hc_ctx, ptr %33, i32 0, i32 5
  %35 = getelementptr inbounds [2 x ptr], ptr %9, i64 0, i64 1
  store ptr %34, ptr %35, align 8, !tbaa !119
  store i64 0, ptr %10, align 8, !tbaa !97
  br label %36

36:                                               ; preds = %86, %29
  %37 = load i64, ptr %10, align 8, !tbaa !97
  %38 = icmp ult i64 %37, 2
  br i1 %38, label %39, label %89

39:                                               ; preds = %36
  call void @llvm.lifetime.start.p0(i64 8, ptr %13) #5
  %40 = load i64, ptr %10, align 8, !tbaa !97
  %41 = getelementptr inbounds nuw [2 x ptr], ptr %9, i64 0, i64 %40
  %42 = load ptr, ptr %41, align 8, !tbaa !119
  store ptr %42, ptr %13, align 8, !tbaa !119
  call void @llvm.lifetime.start.p0(i64 1, ptr %14) #5
  store i8 0, ptr %14, align 1, !tbaa !91
  %43 = load ptr, ptr %13, align 8, !tbaa !119
  %44 = call zeroext i1 @cf_hc_baller_is_active(ptr noundef %43)
  br i1 %44, label %45, label %53

45:                                               ; preds = %39
  %46 = load ptr, ptr %13, align 8, !tbaa !119
  %47 = getelementptr inbounds nuw %struct.cf_hc_baller, ptr %46, i32 0, i32 5
  %48 = load i8, ptr %47, align 4
  %49 = lshr i8 %48, 1
  %50 = and i8 %49, 1
  %51 = zext i8 %50 to i32
  %52 = icmp ne i32 %51, 0
  br i1 %52, label %53, label %54

53:                                               ; preds = %45, %39
  store i32 6, ptr %12, align 4
  br label %83

54:                                               ; preds = %45
  %55 = load ptr, ptr %13, align 8, !tbaa !119
  %56 = getelementptr inbounds nuw %struct.cf_hc_baller, ptr %55, i32 0, i32 1
  %57 = load ptr, ptr %56, align 8, !tbaa !121
  %58 = getelementptr inbounds nuw %struct.Curl_cfilter, ptr %57, i32 0, i32 0
  %59 = load ptr, ptr %58, align 8, !tbaa !87
  %60 = getelementptr inbounds nuw %struct.Curl_cftype, ptr %59, i32 0, i32 6
  %61 = load ptr, ptr %60, align 8, !tbaa !122
  %62 = load ptr, ptr %13, align 8, !tbaa !119
  %63 = getelementptr inbounds nuw %struct.cf_hc_baller, ptr %62, i32 0, i32 1
  %64 = load ptr, ptr %63, align 8, !tbaa !121
  %65 = load ptr, ptr %6, align 8, !tbaa !9
  %66 = call i32 %61(ptr noundef %64, ptr noundef %65, ptr noundef %14)
  %67 = load ptr, ptr %13, align 8, !tbaa !119
  %68 = getelementptr inbounds nuw %struct.cf_hc_baller, ptr %67, i32 0, i32 2
  store i32 %66, ptr %68, align 8, !tbaa !123
  %69 = load ptr, ptr %13, align 8, !tbaa !119
  %70 = getelementptr inbounds nuw %struct.cf_hc_baller, ptr %69, i32 0, i32 2
  %71 = load i32, ptr %70, align 8, !tbaa !123
  %72 = icmp ne i32 %71, 0
  br i1 %72, label %76, label %73

73:                                               ; preds = %54
  %74 = load i8, ptr %14, align 1, !tbaa !91, !range !112, !noundef !113
  %75 = trunc i8 %74 to i1
  br i1 %75, label %76, label %82

76:                                               ; preds = %73, %54
  %77 = load ptr, ptr %13, align 8, !tbaa !119
  %78 = getelementptr inbounds nuw %struct.cf_hc_baller, ptr %77, i32 0, i32 5
  %79 = load i8, ptr %78, align 4
  %80 = and i8 %79, -3
  %81 = or i8 %80, 2
  store i8 %81, ptr %78, align 4
  br label %82

82:                                               ; preds = %76, %73
  store i32 0, ptr %12, align 4
  br label %83

83:                                               ; preds = %82, %53
  call void @llvm.lifetime.end.p0(i64 1, ptr %14) #5
  call void @llvm.lifetime.end.p0(i64 8, ptr %13) #5
  %84 = load i32, ptr %12, align 4
  switch i32 %84, label %197 [
    i32 0, label %85
    i32 6, label %86
  ]

85:                                               ; preds = %83
  br label %86

86:                                               ; preds = %85, %83
  %87 = load i64, ptr %10, align 8, !tbaa !97
  %88 = add i64 %87, 1
  store i64 %88, ptr %10, align 8, !tbaa !97
  br label %36, !llvm.loop !124

89:                                               ; preds = %36
  %90 = load ptr, ptr %7, align 8, !tbaa !93
  store i8 1, ptr %90, align 1, !tbaa !91
  store i64 0, ptr %10, align 8, !tbaa !97
  br label %91

91:                                               ; preds = %112, %89
  %92 = load i64, ptr %10, align 8, !tbaa !97
  %93 = icmp ult i64 %92, 2
  br i1 %93, label %94, label %115

94:                                               ; preds = %91
  %95 = load i64, ptr %10, align 8, !tbaa !97
  %96 = getelementptr inbounds nuw [2 x ptr], ptr %9, i64 0, i64 %95
  %97 = load ptr, ptr %96, align 8, !tbaa !119
  %98 = icmp ne ptr %97, null
  br i1 %98, label %99, label %111

99:                                               ; preds = %94
  %100 = load i64, ptr %10, align 8, !tbaa !97
  %101 = getelementptr inbounds nuw [2 x ptr], ptr %9, i64 0, i64 %100
  %102 = load ptr, ptr %101, align 8, !tbaa !119
  %103 = getelementptr inbounds nuw %struct.cf_hc_baller, ptr %102, i32 0, i32 5
  %104 = load i8, ptr %103, align 4
  %105 = lshr i8 %104, 1
  %106 = and i8 %105, 1
  %107 = zext i8 %106 to i32
  %108 = icmp ne i32 %107, 0
  br i1 %108, label %111, label %109

109:                                              ; preds = %99
  %110 = load ptr, ptr %7, align 8, !tbaa !93
  store i8 0, ptr %110, align 1, !tbaa !91
  br label %111

111:                                              ; preds = %109, %99, %94
  br label %112

112:                                              ; preds = %111
  %113 = load i64, ptr %10, align 8, !tbaa !97
  %114 = add i64 %113, 1
  store i64 %114, ptr %10, align 8, !tbaa !97
  br label %91, !llvm.loop !126

115:                                              ; preds = %91
  %116 = load ptr, ptr %7, align 8, !tbaa !93
  %117 = load i8, ptr %116, align 1, !tbaa !91, !range !112, !noundef !113
  %118 = trunc i8 %117 to i1
  br i1 %118, label %119, label %146

119:                                              ; preds = %115
  store i64 0, ptr %10, align 8, !tbaa !97
  br label %120

120:                                              ; preds = %142, %119
  %121 = load i64, ptr %10, align 8, !tbaa !97
  %122 = icmp ult i64 %121, 2
  br i1 %122, label %123, label %145

123:                                              ; preds = %120
  %124 = load i64, ptr %10, align 8, !tbaa !97
  %125 = getelementptr inbounds nuw [2 x ptr], ptr %9, i64 0, i64 %124
  %126 = load ptr, ptr %125, align 8, !tbaa !119
  %127 = icmp ne ptr %126, null
  br i1 %127, label %128, label %141

128:                                              ; preds = %123
  %129 = load i64, ptr %10, align 8, !tbaa !97
  %130 = getelementptr inbounds nuw [2 x ptr], ptr %9, i64 0, i64 %129
  %131 = load ptr, ptr %130, align 8, !tbaa !119
  %132 = getelementptr inbounds nuw %struct.cf_hc_baller, ptr %131, i32 0, i32 2
  %133 = load i32, ptr %132, align 8, !tbaa !123
  %134 = icmp ne i32 %133, 0
  br i1 %134, label %135, label %141

135:                                              ; preds = %128
  %136 = load i64, ptr %10, align 8, !tbaa !97
  %137 = getelementptr inbounds nuw [2 x ptr], ptr %9, i64 0, i64 %136
  %138 = load ptr, ptr %137, align 8, !tbaa !119
  %139 = getelementptr inbounds nuw %struct.cf_hc_baller, ptr %138, i32 0, i32 2
  %140 = load i32, ptr %139, align 8, !tbaa !123
  store i32 %140, ptr %11, align 4, !tbaa !95
  br label %141

141:                                              ; preds = %135, %128, %123
  br label %142

142:                                              ; preds = %141
  %143 = load i64, ptr %10, align 8, !tbaa !97
  %144 = add i64 %143, 1
  store i64 %144, ptr %10, align 8, !tbaa !97
  br label %120, !llvm.loop !127

145:                                              ; preds = %120
  br label %146

146:                                              ; preds = %145, %115
  br label %147

147:                                              ; preds = %146
  %148 = load ptr, ptr %6, align 8, !tbaa !9
  %149 = icmp ne ptr %148, null
  br i1 %149, label %150, label %191

150:                                              ; preds = %147
  %151 = load ptr, ptr %6, align 8, !tbaa !9
  %152 = getelementptr inbounds nuw %struct.Curl_easy, ptr %151, i32 0, i32 15
  %153 = getelementptr inbounds nuw %struct.UserDefined, ptr %152, i32 0, i32 124
  %154 = load i64, ptr %153, align 2
  %155 = lshr i64 %154, 27
  %156 = and i64 %155, 1
  %157 = trunc i64 %156 to i32
  %158 = icmp ne i32 %157, 0
  br i1 %158, label %159, label %191

159:                                              ; preds = %150
  %160 = load ptr, ptr %6, align 8, !tbaa !9
  %161 = getelementptr inbounds nuw %struct.Curl_easy, ptr %160, i32 0, i32 19
  %162 = getelementptr inbounds nuw %struct.UrlState, ptr %161, i32 0, i32 47
  %163 = load ptr, ptr %162, align 8, !tbaa !18
  %164 = icmp ne ptr %163, null
  br i1 %164, label %165, label %173

165:                                              ; preds = %159
  %166 = load ptr, ptr %6, align 8, !tbaa !9
  %167 = getelementptr inbounds nuw %struct.Curl_easy, ptr %166, i32 0, i32 19
  %168 = getelementptr inbounds nuw %struct.UrlState, ptr %167, i32 0, i32 47
  %169 = load ptr, ptr %168, align 8, !tbaa !18
  %170 = getelementptr inbounds nuw %struct.curl_trc_feat, ptr %169, i32 0, i32 1
  %171 = load i32, ptr %170, align 8, !tbaa !85
  %172 = icmp sge i32 %171, 1
  br i1 %172, label %173, label %191

173:                                              ; preds = %165, %159
  %174 = load ptr, ptr %5, align 8, !tbaa !4
  %175 = icmp ne ptr %174, null
  br i1 %175, label %176, label %191

176:                                              ; preds = %173
  %177 = load ptr, ptr %5, align 8, !tbaa !4
  %178 = getelementptr inbounds nuw %struct.Curl_cfilter, ptr %177, i32 0, i32 0
  %179 = load ptr, ptr %178, align 8, !tbaa !87
  %180 = getelementptr inbounds nuw %struct.Curl_cftype, ptr %179, i32 0, i32 2
  %181 = load i32, ptr %180, align 4, !tbaa !88
  %182 = icmp sge i32 %181, 1
  br i1 %182, label %183, label %191

183:                                              ; preds = %176
  %184 = load ptr, ptr %6, align 8, !tbaa !9
  %185 = load ptr, ptr %5, align 8, !tbaa !4
  %186 = load i32, ptr %11, align 4, !tbaa !95
  %187 = load ptr, ptr %7, align 8, !tbaa !93
  %188 = load i8, ptr %187, align 1, !tbaa !91, !range !112, !noundef !113
  %189 = trunc i8 %188 to i1
  %190 = zext i1 %189 to i32
  call void (ptr, ptr, ptr, ...) @Curl_trc_cf_infof(ptr noundef %184, ptr noundef %185, ptr noundef @.str.13, i32 noundef %186, i32 noundef %190)
  br label %191

191:                                              ; preds = %183, %176, %173, %165, %150, %147
  br label %192

192:                                              ; preds = %191
  br label %193

193:                                              ; preds = %192
  %194 = load i32, ptr %11, align 4, !tbaa !95
  store i32 %194, ptr %4, align 4
  store i32 1, ptr %12, align 4
  br label %195

195:                                              ; preds = %193, %27
  call void @llvm.lifetime.end.p0(i64 4, ptr %11) #5
  call void @llvm.lifetime.end.p0(i64 8, ptr %10) #5
  call void @llvm.lifetime.end.p0(i64 16, ptr %9) #5
  call void @llvm.lifetime.end.p0(i64 8, ptr %8) #5
  %196 = load i32, ptr %4, align 4
  ret i32 %196

197:                                              ; preds = %83
  unreachable
}